Certificate:
    Data:
        Version: 3 (0x2)
        Serial Number: 58 (0x3a)
    Signature Algorithm: sha1WithRSAEncryption
        Issuer: C=US, ST=Pennsylvania, L=Pittsburgh, O=CMU, OU=15-441, CN=15-441 CMU CA/emailAddress=staf-441@cs.cmu.edu
        Validity
            Not Before: Sep 28 02:32:06 2016 GMT
            Not After : Sep 28 02:32:06 2017 GMT
        Subject: C=US, ST=Pennsylvania, L=Pittsburgh, O=longqic Corp., OU=longqic Organizational Unit, CN=longqic.ddns.net/emailAddress=longqic@andrew.cmu.edu
        Subject Public Key Info:
            Public Key Algorithm: rsaEncryption
                Public-Key: (4096 bit)
                Modulus:
                    00:a4:3e:c8:95:2c:ee:fa:21:a6:78:6c:f1:cc:9a:
                    4f:be:86:af:40:db:06:cb:43:b2:c3:66:35:71:3f:
                    99:ca:13:66:ea:da:74:d7:3e:a3:41:0f:bc:ef:c5:
                    c5:f1:e5:f8:52:8e:95:ab:ca:e5:d2:d1:4a:4d:f6:
                    5e:9b:92:27:08:ca:c5:00:09:93:88:10:7a:d6:16:
                    ac:fd:f6:e0:db:27:80:06:e1:ab:15:1e:cd:6f:2f:
                    c9:ad:6c:62:2c:fd:91:5b:6a:33:bc:d4:b0:bd:cc:
                    b0:ea:6b:ba:6e:5c:9a:e4:a4:09:5c:c0:b9:65:3d:
                    87:85:a3:14:5e:b0:dc:26:41:a1:87:db:4e:c1:2b:
                    75:79:b9:f3:3c:19:32:fd:6f:39:58:48:00:28:8f:
                    03:5b:f5:c8:54:98:f4:c2:4e:96:79:be:85:0b:c4:
                    f4:70:98:f9:b3:9a:cb:fe:f5:bf:26:bf:23:02:25:
                    51:d6:62:a6:4d:f2:3d:cd:3a:d7:d6:c9:e3:c5:03:
                    45:06:44:44:58:bb:35:90:8e:e5:ef:f4:6f:21:2c:
                    59:25:22:09:94:b5:cc:63:77:9f:b9:b3:90:b0:2d:
                    25:01:ff:d0:fb:98:19:da:9d:08:53:a8:f5:16:50:
                    4d:3c:2f:b2:07:bb:33:cc:3a:da:47:46:40:d9:1d:
                    e3:34:d2:09:68:81:37:30:8a:1d:8e:b7:89:c0:52:
                    4a:bf:c5:8f:fc:87:b1:d1:0e:55:08:77:33:75:00:
                    75:ed:85:cf:e6:fd:ab:21:74:1e:5a:fb:42:71:84:
                    d5:43:4c:bf:29:38:d3:d9:e6:30:31:c2:b8:fd:ca:
                    b0:70:e1:9f:19:58:06:2a:c4:5d:37:20:98:0f:80:
                    44:09:c3:8f:b3:d5:86:d2:ce:55:44:c7:d0:81:f7:
                    ba:9f:46:c6:48:9c:17:87:3d:ae:9e:f6:d5:87:47:
                    6d:85:ec:92:65:16:d1:9e:33:fd:ff:fa:c1:3d:72:
                    93:05:eb:f8:1d:b3:7c:97:be:97:ec:aa:33:d2:62:
                    4d:04:a0:4d:f3:f4:c8:07:72:93:6e:5b:af:de:44:
                    d8:cf:fb:1c:18:c0:ff:52:f3:f2:a4:13:ae:9c:63:
                    c4:56:3a:35:92:0f:61:15:e3:30:4a:74:36:0a:d8:
                    ef:1a:c4:f6:63:68:b5:b9:3e:5d:9a:1a:07:63:ff:
                    6c:87:f3:f3:c7:c6:fb:13:63:5e:a5:51:ef:98:e6:
                    56:2f:c8:0e:11:ca:88:49:a9:c4:84:ec:e6:23:72:
                    03:47:9a:7b:10:15:b7:5d:de:67:47:0d:05:e3:d5:
                    12:ff:35:ec:f5:8f:c4:5e:57:a1:1b:e8:61:57:d7:
                    c7:12:8f
                Exponent: 65537 (0x10001)
        X509v3 extensions:
            X509v3 Basic Constraints: 
                CA:FALSE
            Netscape Comment: 
                15-441 CMU CA OpenSSL Generated Certificate
            X509v3 Subject Key Identifier: 
                D1:93:0A:1B:0E:6A:E0:35:4B:44:66:64:FD:FA:A0:37:59:75:86:96
            X509v3 Authority Key Identifier: 
                keyid:88:A4:AA:5C:48:64:CD:34:1B:FD:9F:69:F6:43:49:25:A4:52:C2:E1

    Signature Algorithm: sha1WithRSAEncryption
         8b:9b:7d:4a:5a:97:61:a9:41:df:92:99:24:31:29:64:b0:c0:
         18:b0:8c:75:47:be:2c:17:37:eb:b5:31:2b:ff:c8:c9:60:fd:
         0d:d5:87:86:ce:c0:88:0a:1e:2a:63:39:24:11:a2:44:ae:51:
         c7:24:c9:3c:cb:06:36:cd:59:6f:25:2b:08:e2:1f:69:58:61:
         ed:ad:e9:1a:a2:a6:b6:1d:b5:38:81:7c:cd:64:cb:69:46:fd:
         14:62:22:b1:33:99:6d:17:bd:78:62:10:a2:bf:6d:57:d1:a2:
         19:60:75:5d:57:6f:a2:ae:94:48:13:48:d8:dc:c1:b2:a3:c2:
         a1:47:4e:b5:2d:29:0a:91:0d:cd:1a:38:d1:ba:4e:40:27:27:
         02:29:d5:58:cf:52:91:ca:b6:bf:2d:66:d0:e8:5e:d6:77:fd:
         5a:a2:6f:dc:ef:5d:e3:57:12:2d:e2:79:31:64:20:b1:76:73:
         50:7a:7d:df:60:c8:17:92:10:19:f0:e3:3b:0d:74:4f:a1:56:
         e7:ff:19:43:9a:15:20:75:3d:fb:29:bc:2d:a5:03:11:bf:76:
         c3:70:df:99:94:d8:2e:09:b6:2e:82:32:d8:1d:6b:37:66:ef:
         b5:15:83:35:86:2a:42:46:7e:b5:39:90:45:cf:af:f9:6a:eb:
         8e:2f:41:a0:28:42:74:94:99:0a:70:8f:04:d1:55:ee:d8:8d:
         f3:54:e0:04:13:f1:c0:d4:97:6f:e6:98:28:7e:31:06:0a:77:
         be:56:fc:82:2f:4a:11:a9:ad:28:2b:1f:da:ab:fa:e2:a6:85:
         3b:26:ea:09:37:12:f9:f1:ee:85:8d:dc:da:69:75:7f:b8:2d:
         33:9d:0e:bf:9f:fa:44:2b:77:cf:28:82:04:b6:d2:9b:92:6b:
         51:b0:0f:50:f2:6b:f6:f4:7f:d6:b6:32:98:f1:58:70:88:be:
         b7:27:9c:b9:bd:00:d6:e2:41:41:75:c3:52:3b:78:77:55:b5:
         b4:08:82:7d:3c:f1:ed:b9:bf:ed:08:88:b3:45:3d:7c:d2:df:
         37:dd:85:8f:ff:19:4a:b2:3b:5b:67:bb:31:55:9f:f5:64:db:
         79:ed:22:5a:a5:e7:72:36:31:55:2e:79:95:4c:74:f6:c3:a8:
         61:53:6f:3e:94:dd:12:1c:72:f9:55:55:19:85:fc:5b:28:23:
         31:5a:10:28:31:1d:db:4c:b2:65:c1:8b:43:12:d2:4d:46:f9:
         5c:2c:52:d6:13:da:80:64:72:7a:95:1e:26:22:61:ac:76:24:
         55:fa:0a:9c:bb:27:d1:9e:a4:da:10:d9:a5:1d:8a:90:73:d4:
         ee:d5:43:31:68:54:d2:1c
-----BEGIN CERTIFICATE-----
MIIGVTCCBD2gAwIBAgIBOjANBgkqhkiG9w0BAQUFADCBlDELMAkGA1UEBhMCVVMx
FTATBgNVBAgTDFBlbm5zeWx2YW5pYTETMBEGA1UEBxMKUGl0dHNidXJnaDEMMAoG
A1UEChMDQ01VMQ8wDQYDVQQLEwYxNS00NDExFjAUBgNVBAMTDTE1LTQ0MSBDTVUg
Q0ExIjAgBgkqhkiG9w0BCQEWE3N0YWYtNDQxQGNzLmNtdS5lZHUwHhcNMTYwOTI4
MDIzMjA2WhcNMTcwOTI4MDIzMjA2WjCBuTELMAkGA1UEBhMCVVMxFTATBgNVBAgT
DFBlbm5zeWx2YW5pYTETMBEGA1UEBxMKUGl0dHNidXJnaDEWMBQGA1UEChMNbG9u
Z3FpYyBDb3JwLjEkMCIGA1UECxMbbG9uZ3FpYyBPcmdhbml6YXRpb25hbCBVbml0
MRkwFwYDVQQDExBsb25ncWljLmRkbnMubmV0MSUwIwYJKoZIhvcNAQkBFhZsb25n
cWljQGFuZHJldy5jbXUuZWR1MIICIjANBgkqhkiG9w0BAQEFAAOCAg8AMIICCgKC
AgEApD7IlSzu+iGmeGzxzJpPvoavQNsGy0Oyw2Y1cT+ZyhNm6tp01z6jQQ+878XF
8eX4Uo6Vq8rl0tFKTfZem5InCMrFAAmTiBB61has/fbg2yeABuGrFR7Nby/JrWxi
LP2RW2ozvNSwvcyw6mu6blya5KQJXMC5ZT2HhaMUXrDcJkGhh9tOwSt1ebnzPBky
/W85WEgAKI8DW/XIVJj0wk6Web6FC8T0cJj5s5rL/vW/Jr8jAiVR1mKmTfI9zTrX
1snjxQNFBkREWLs1kI7l7/RvISxZJSIJlLXMY3efubOQsC0lAf/Q+5gZ2p0IU6j1
FlBNPC+yB7szzDraR0ZA2R3jNNIJaIE3MIodjreJwFJKv8WP/Iex0Q5VCHczdQB1
7YXP5v2rIXQeWvtCcYTVQ0y/KTjT2eYwMcK4/cqwcOGfGVgGKsRdNyCYD4BECcOP
s9WG0s5VRMfQgfe6n0bGSJwXhz2unvbVh0dtheySZRbRnjP9//rBPXKTBev4HbN8
l76X7Koz0mJNBKBN8/TIB3KTbluv3kTYz/scGMD/UvPypBOunGPEVjo1kg9hFeMw
SnQ2CtjvGsT2Y2i1uT5dmhoHY/9sh/Pzx8b7E2NepVHvmOZWL8gOEcqISanEhOzm
I3IDR5p7EBW3Xd5nRw0F49US/zXs9Y/EXlehG+hhV9fHEo8CAwEAAaOBijCBhzAJ
BgNVHRMEAjAAMDoGCWCGSAGG+EIBDQQtFisxNS00NDEgQ01VIENBIE9wZW5TU0wg
R2VuZXJhdGVkIENlcnRpZmljYXRlMB0GA1UdDgQWBBTRkwobDmrgNUtEZmT9+qA3
WXWGljAfBgNVHSMEGDAWgBSIpKpcSGTNNBv9n2n2Q0klpFLC4TANBgkqhkiG9w0B
AQUFAAOCAgEAi5t9SlqXYalB35KZJDEpZLDAGLCMdUe+LBc367UxK//IyWD9DdWH
hs7AiAoeKmM5JBGiRK5RxyTJPMsGNs1ZbyUrCOIfaVhh7a3pGqKmth21OIF8zWTL
aUb9FGIisTOZbRe9eGIQor9tV9GiGWB1XVdvoq6USBNI2NzBsqPCoUdOtS0pCpEN
zRo40bpOQCcnAinVWM9Skcq2vy1m0Ohe1nf9WqJv3O9d41cSLeJ5MWQgsXZzUHp9
32DIF5IQGfDjOw10T6FW5/8ZQ5oVIHU9+ym8LaUDEb92w3DfmZTYLgm2LoIy2B1r
N2bvtRWDNYYqQkZ+tTmQRc+v+Wrrji9BoChCdJSZCnCPBNFV7tiN81TgBBPxwNSX
b+aYKH4xBgp3vlb8gi9KEamtKCsf2qv64qaFOybqCTcS+fHuhY3c2ml1f7gtM50O
v5/6RCt3zyiCBLbSm5JrUbAPUPJr9vR/1rYymPFYcIi+tyecub0A1uJBQXXDUjt4
d1W1tAiCfTzx7bm/7QiIs0U9fNLfN92Fj/8ZSrI7W2e7MVWf9WTbee0iWqXncjYx
VS55lUx09sOoYVNvPpTdEhxy+VVVGYX8WygjMVoQKDEd20yyZcGLQxLSTUb5XCxS
1hPagGRyepUeJiJhrHYkVfoKnLsn0Z6k2hDZpR2KkHPU7tVDMWhU0hw=
-----END CERTIFICATE-----
